target datalayout = "e-m:e-p270:32:32-p271:32:32-p272:64:64-i64:64-i128:128-f80:128-n8:16:32:64-S128"
target triple = "x86_64-pc-linux-gnu"

%struct.dbd_list_msg_t = type { ptr, i32 }

@.str = private unnamed_addr constant [16 x i8] c"slurmdbd_pack.c\00", align 1
@.str.2 = private unnamed_addr constant [24 x i8] c"%s: Unknown unpack type\00", align 1
@__func__.slurmdbd_unpack_list_msg = private unnamed_addr constant [25 x i8] c"slurmdbd_unpack_list_msg\00", align 1

; Function Attrs: nounwind uwtable
define dso_local i32 @slurmdbd_unpack_list_msg(ptr noundef %0, i16 noundef zeroext %1, i32 noundef %2, ptr noundef %3) #0 {
  %5 = alloca i32, align 4
  %6 = alloca ptr, align 8
  %7 = alloca i16, align 2
  %8 = alloca i32, align 4
  %9 = alloca ptr, align 8
  %10 = alloca ptr, align 8
  %11 = alloca ptr, align 8
  %12 = alloca ptr, align 8
  %13 = alloca i32, align 4
  store ptr %0, ptr %6, align 8
  store i16 %1, ptr %7, align 2
  store i32 %2, ptr %8, align 4
  store ptr %3, ptr %9, align 8
  call void @llvm.lifetime.start.p0(i64 8, ptr %10) #5
  store ptr null, ptr %10, align 8
  call void @llvm.lifetime.start.p0(i64 8, ptr %11) #5
  call void @llvm.lifetime.start.p0(i64 8, ptr %12) #5
  %14 = load i32, ptr %8, align 4
  switch i32 %14, label %35 [
    i32 1402, label %15
    i32 1416, label %15
    i32 1485, label %16
    i32 1487, label %16
    i32 1404, label %17
    i32 1417, label %17
    i32 1469, label %17
    i32 1405, label %18
    i32 1419, label %18
    i32 1493, label %19
    i32 1495, label %19
    i32 1467, label %20
    i32 1421, label %21
    i32 1488, label %21
    i32 1422, label %22
    i32 1447, label %23
    i32 1449, label %23
    i32 1465, label %24
    i32 1477, label %25
    i32 1479, label %25
    i32 1452, label %26
    i32 1454, label %26
    i32 1406, label %27
    i32 1423, label %27
    i32 1446, label %28
    i32 1471, label %29
    i32 1504, label %30
    i32 1472, label %31
    i32 1473, label %32
    i32 1498, label %33
    i32 1474, label %34
    i32 1475, label %34
  ]

15:                                               ; preds = %4, %4
  store ptr @slurmdb_unpack_account_rec, ptr %11, align 8
  store ptr @slurmdb_destroy_account_rec, ptr %12, align 8
  br label %36

16:                                               ; preds = %4, %4
  store ptr @slurmdb_unpack_tres_rec, ptr %11, align 8
  store ptr @slurmdb_destroy_tres_rec, ptr %12, align 8
  br label %36

17:                                               ; preds = %4, %4, %4
  store ptr @slurmdb_unpack_assoc_rec, ptr %11, align 8
  store ptr @slurmdb_destroy_assoc_rec, ptr %12, align 8
  br label %36

18:                                               ; preds = %4, %4
  store ptr @slurmdb_unpack_cluster_rec, ptr %11, align 8
  store ptr @slurmdb_destroy_cluster_rec, ptr %12, align 8
  br label %36

19:                                               ; preds = %4, %4
  store ptr @slurmdb_unpack_federation_rec, ptr %11, align 8
  store ptr @slurmdb_destroy_federation_rec, ptr %12, align 8
  br label %36

20:                                               ; preds = %4
  store ptr @unpack_config_key_pair, ptr %11, align 8
  store ptr @destroy_config_key_pair, ptr %12, align 8
  br label %36

21:                                               ; preds = %4, %4
  store ptr @slurmdb_unpack_job_rec, ptr %11, align 8
  store ptr @slurmdb_destroy_job_rec, ptr %12, align 8
  br label %36

22:                                               ; preds = %4
  store ptr @safe_unpackstr_func, ptr %11, align 8
  store ptr @xfree_ptr, ptr %12, align 8
  br label %36

23:                                               ; preds = %4, %4
  store ptr @slurmdb_unpack_qos_rec, ptr %11, align 8
  store ptr @slurmdb_destroy_qos_rec, ptr %12, align 8
  br label %36

24:                                               ; preds = %4
  store ptr @slurmdb_unpack_reservation_rec, ptr %11, align 8
  store ptr @slurmdb_destroy_reservation_rec, ptr %12, align 8
  br label %36

25:                                               ; preds = %4, %4
  store ptr @slurmdb_unpack_res_rec, ptr %11, align 8
  store ptr @slurmdb_destroy_res_rec, ptr %12, align 8
  br label %36

26:                                               ; preds = %4, %4
  store ptr @slurmdb_unpack_wckey_rec, ptr %11, align 8
  store ptr @slurmdb_destroy_wckey_rec, ptr %12, align 8
  br label %36

27:                                               ; preds = %4, %4
  store ptr @slurmdb_unpack_user_rec, ptr %11, align 8
  store ptr @slurmdb_destroy_user_rec, ptr %12, align 8
  br label %36

28:                                               ; preds = %4
  store ptr @slurmdb_unpack_txn_rec, ptr %11, align 8
  store ptr @slurmdb_destroy_txn_rec, ptr %12, align 8
  br label %36

29:                                               ; preds = %4
  store ptr @slurmdb_unpack_event_rec, ptr %11, align 8
  store ptr @slurmdb_destroy_event_rec, ptr %12, align 8
  br label %36

30:                                               ; preds = %4
  store ptr @slurmdb_unpack_instance_rec, ptr %11, align 8
  store ptr @slurmdb_destroy_instance_rec, ptr %12, align 8
  br label %36

31:                                               ; preds = %4
  store ptr @_unpack_job_start_msg, ptr %11, align 8
  store ptr @slurmdbd_free_job_start_msg, ptr %12, align 8
  br label %36

32:                                               ; preds = %4
  store ptr @slurmdbd_unpack_id_rc_msg, ptr %11, align 8
  store ptr @slurmdbd_free_id_rc_msg, ptr %12, align 8
  br label %36

33:                                               ; preds = %4
  store ptr @_unpack_job_heavy_msg, ptr %11, align 8
  store ptr @slurmdbd_free_job_heavy_msg, ptr %12, align 8
  br label %36

34:                                               ; preds = %4, %4
  store ptr @_unpack_buffer, ptr %11, align 8
  store ptr @slurmdbd_free_buffer, ptr %12, align 8
  br label %36

35:                                               ; preds = %4
  call void (ptr, ...) @fatal(ptr noundef @.str.2, ptr noundef @__func__.slurmdbd_unpack_list_msg) #7
  unreachable

36:                                               ; preds = %34, %33, %32, %31, %30, %29, %28, %27, %26, %25, %24, %23, %22, %21, %20, %19, %18, %17, %16, %15
  %37 = call ptr @slurm_xcalloc(i64 noundef 1, i64 noundef 16, i1 noundef zeroext true, i1 noundef zeroext false, ptr noundef @.str, i32 noundef 1700, ptr noundef @__func__.slurmdbd_unpack_list_msg)
  store ptr %37, ptr %10, align 8
  %38 = load ptr, ptr %10, align 8
  %39 = load ptr, ptr %6, align 8
  store ptr %38, ptr %39, align 8
  %40 = load ptr, ptr %10, align 8
  %41 = getelementptr inbounds nuw %struct.dbd_list_msg_t, ptr %40, i32 0, i32 0
  %42 = load ptr, ptr %11, align 8
  %43 = load ptr, ptr %12, align 8
  %44 = load ptr, ptr %9, align 8
  %45 = load i16, ptr %7, align 2
  %46 = call i32 @slurm_unpack_list(ptr noundef %41, ptr noundef %42, ptr noundef %43, ptr noundef %44, i16 noundef zeroext %45)
  %47 = icmp ne i32 %46, 0
  br i1 %47, label %48, label %49

48:                                               ; preds = %36
  br label %60

49:                                               ; preds = %36
  br label %50

50:                                               ; preds = %49
  %51 = load ptr, ptr %10, align 8
  %52 = getelementptr inbounds nuw %struct.dbd_list_msg_t, ptr %51, i32 0, i32 1
  %53 = load ptr, ptr %9, align 8
  %54 = call i32 @unpack32(ptr noundef %52, ptr noundef %53)
  %55 = icmp ne i32 %54, 0
  br i1 %55, label %56, label %57

56:                                               ; preds = %50
  br label %60

57:                                               ; preds = %50
  br label %58

58:                                               ; preds = %57
  br label %59

59:                                               ; preds = %58
  store i32 0, ptr %5, align 4
  store i32 1, ptr %13, align 4
  br label %63

60:                                               ; preds = %56, %48
  %61 = load ptr, ptr %10, align 8
  call void @slurmdbd_free_list_msg(ptr noundef %61)
  %62 = load ptr, ptr %6, align 8
  store ptr null, ptr %62, align 8
  store i32 -1, ptr %5, align 4
  store i32 1, ptr %13, align 4
  br label %63

63:                                               ; preds = %60, %59
  call void @llvm.lifetime.end.p0(i64 8, ptr %12) #5
  call void @llvm.lifetime.end.p0(i64 8, ptr %11) #5
  call void @llvm.lifetime.end.p0(i64 8, ptr %10) #5
  %64 = load i32, ptr %5, align 4
  ret i32 %64
}