; Function Attrs: nounwind uwtable
define dso_local range(i32 -1, 1) i32 @slurmdbd_unpack_list_msg(ptr noundef writeonly captures(none) %0, i16 noundef zeroext %1, i32 noundef %2, ptr noundef %3) local_unnamed_addr #0 {
  switch i32 %2, label %24 [
    i32 1402, label %25
    i32 1416, label %25
    i32 1485, label %5
    i32 1487, label %5
    i32 1404, label %6
    i32 1417, label %6
    i32 1469, label %6
    i32 1405, label %7
    i32 1419, label %7
    i32 1493, label %8
    i32 1495, label %8
    i32 1467, label %9
    i32 1421, label %10
    i32 1488, label %10
    i32 1422, label %11
    i32 1447, label %12
    i32 1449, label %12
    i32 1465, label %13
    i32 1477, label %14
    i32 1479, label %14
    i32 1452, label %15
    i32 1454, label %15
    i32 1406, label %16
    i32 1423, label %16
    i32 1446, label %17
    i32 1471, label %18
    i32 1504, label %19
    i32 1472, label %20
    i32 1473, label %21
    i32 1498, label %22
    i32 1474, label %23
    i32 1475, label %23
  ]

5:                                                ; preds = %4, %4
  br label %25

6:                                                ; preds = %4, %4, %4
  br label %25

7:                                                ; preds = %4, %4
  br label %25

8:                                                ; preds = %4, %4
  br label %25

9:                                                ; preds = %4
  br label %25

10:                                               ; preds = %4, %4
  br label %25

11:                                               ; preds = %4
  br label %25

12:                                               ; preds = %4, %4
  br label %25

13:                                               ; preds = %4
  br label %25

14:                                               ; preds = %4, %4
  br label %25

15:                                               ; preds = %4, %4
  br label %25

16:                                               ; preds = %4, %4
  br label %25

17:                                               ; preds = %4
  br label %25

18:                                               ; preds = %4
  br label %25

19:                                               ; preds = %4
  br label %25

20:                                               ; preds = %4
  br label %25

21:                                               ; preds = %4
  br label %25

22:                                               ; preds = %4
  br label %25

23:                                               ; preds = %4, %4
  br label %25

24:                                               ; preds = %4
  tail call void (ptr, ...) @fatal(ptr noundef nonnull @.str.2, ptr noundef nonnull @__func__.slurmdbd_unpack_list_msg) #6
  unreachable

25:                                               ; preds = %4, %4, %23, %22, %21, %20, %19, %18, %17, %16, %15, %14, %13, %12, %11, %10, %9, %8, %7, %6, %5
  %.012 = phi ptr [ @_unpack_buffer, %23 ], [ @_unpack_job_heavy_msg, %22 ], [ @slurmdbd_unpack_id_rc_msg, %21 ], [ @_unpack_job_start_msg, %20 ], [ @slurmdb_unpack_instance_rec, %19 ], [ @slurmdb_unpack_event_rec, %18 ], [ @slurmdb_unpack_txn_rec, %17 ], [ @slurmdb_unpack_user_rec, %16 ], [ @slurmdb_unpack_wckey_rec, %15 ], [ @slurmdb_unpack_res_rec, %14 ], [ @slurmdb_unpack_reservation_rec, %13 ], [ @slurmdb_unpack_qos_rec, %12 ], [ @safe_unpackstr_func, %11 ], [ @slurmdb_unpack_job_rec, %10 ], [ @unpack_config_key_pair, %9 ], [ @slurmdb_unpack_federation_rec, %8 ], [ @slurmdb_unpack_cluster_rec, %7 ], [ @slurmdb_unpack_assoc_rec, %6 ], [ @slurmdb_unpack_tres_rec, %5 ], [ @slurmdb_unpack_account_rec, %4 ], [ @slurmdb_unpack_account_rec, %4 ]
  %.0 = phi ptr [ @slurmdbd_free_buffer, %23 ], [ @slurmdbd_free_job_heavy_msg, %22 ], [ @slurmdbd_free_id_rc_msg, %21 ], [ @slurmdbd_free_job_start_msg, %20 ], [ @slurmdb_destroy_instance_rec, %19 ], [ @slurmdb_destroy_event_rec, %18 ], [ @slurmdb_destroy_txn_rec, %17 ], [ @slurmdb_destroy_user_rec, %16 ], [ @slurmdb_destroy_wckey_rec, %15 ], [ @slurmdb_destroy_res_rec, %14 ], [ @slurmdb_destroy_reservation_rec, %13 ], [ @slurmdb_destroy_qos_rec, %12 ], [ @xfree_ptr, %11 ], [ @slurmdb_destroy_job_rec, %10 ], [ @destroy_config_key_pair, %9 ], [ @slurmdb_destroy_federation_rec, %8 ], [ @slurmdb_destroy_cluster_rec, %7 ], [ @slurmdb_destroy_assoc_rec, %6 ], [ @slurmdb_destroy_tres_rec, %5 ], [ @slurmdb_destroy_account_rec, %4 ], [ @slurmdb_destroy_account_rec, %4 ]
  %26 = tail call ptr @slurm_xcalloc(i64 noundef 1, i64 noundef 16, i1 noundef zeroext true, i1 noundef zeroext false, ptr noundef nonnull @.str, i32 noundef 1700, ptr noundef nonnull @__func__.slurmdbd_unpack_list_msg) #5
  store ptr %26, ptr %0, align 8
  %27 = tail call i32 @slurm_unpack_list(ptr noundef %26, ptr noundef nonnull %.012, ptr noundef nonnull %.0, ptr noundef %3, i16 noundef zeroext %1) #5
  %.not = icmp eq i32 %27, 0
  br i1 %.not, label %28, label %31

28:                                               ; preds = %25
  %29 = getelementptr inbounds nuw i8, ptr %26, i64 8
  %30 = tail call i32 @unpack32(ptr noundef nonnull %29, ptr noundef %3) #5
  %.not14 = icmp eq i32 %30, 0
  br i1 %.not14, label %32, label %31

31:                                               ; preds = %28, %25
  tail call void @slurmdbd_free_list_msg(ptr noundef %26) #5
  store ptr null, ptr %0, align 8
  br label %32

32:                                               ; preds = %28, %31
  %.013 = phi i32 [ -1, %31 ], [ 0, %28 ]
  ret i32 %.013
}